target datalayout = "e-m:e-p270:32:32-p271:32:32-p272:64:64-i64:64-i128:128-f80:128-n8:16:32:64-S128"
target triple = "x86_64-pc-linux-gnu"

%"class.pxrInternal_v0_24__pxrReserved__::pxr_half::half" = type { i16 }
%"class.pxrInternal_v0_24__pxrReserved__::GfVec2h" = type { [2 x %"class.pxrInternal_v0_24__pxrReserved__::pxr_half::half"] }

@.str.2 = private unnamed_addr constant [3 x i8] c", \00", align 1

; Function Attrs: mustprogress nounwind uwtable
define linkonce_odr i16 @_ZN32pxrInternal_v0_24__pxrReserved__17Gf_OstreamHelperPINS_8pxr_half4halfEEET_S3_(i16 %0) #2 comdat {
  %2 = alloca %"class.pxrInternal_v0_24__pxrReserved__::pxr_half::half", align 2
  %3 = alloca %"class.pxrInternal_v0_24__pxrReserved__::pxr_half::half", align 2
  %4 = getelementptr inbounds nuw %"class.pxrInternal_v0_24__pxrReserved__::pxr_half::half", ptr %3, i32 0, i32 0
  store i16 %0, ptr %4, align 2
  call void @llvm.memcpy.p0.p0.i64(ptr align 2 %2, ptr align 2 %3, i64 2, i1 false)
  %5 = getelementptr inbounds nuw %"class.pxrInternal_v0_24__pxrReserved__::pxr_half::half", ptr %2, i32 0, i32 0
  %6 = load i16, ptr %5, align 2
  ret i16 %6
}

; Function Attrs: mustprogress nounwind uwtable
define linkonce_odr noundef nonnull align 2 dereferenceable(2) ptr @_ZNK32pxrInternal_v0_24__pxrReserved__7GfVec2hixEm(ptr noundef nonnull align 2 dereferenceable(4) %0, i64 noundef %1) #2 comdat align 2 {
  %3 = alloca ptr, align 8
  %4 = alloca i64, align 8
  store ptr %0, ptr %3, align 8
  store i64 %1, ptr %4, align 8
  %5 = load ptr, ptr %3, align 8
  %6 = getelementptr inbounds nuw %"class.pxrInternal_v0_24__pxrReserved__::GfVec2h", ptr %5, i32 0, i32 0
  %7 = load i64, ptr %4, align 8
  %8 = getelementptr inbounds [2 x %"class.pxrInternal_v0_24__pxrReserved__::pxr_half::half"], ptr %6, i64 0, i64 %7
  ret ptr %8
}

; Function Attrs: mustprogress uwtable
define noundef nonnull align 8 dereferenceable(8) ptr @_ZN32pxrInternal_v0_24__pxrReserved__lsERSoRKNS_7GfVec2hE(ptr noundef nonnull align 8 dereferenceable(8) %0, ptr noundef nonnull align 2 dereferenceable(4) %1) #0 {
  %3 = alloca ptr, align 8
  %4 = alloca ptr, align 8
  %5 = alloca %"class.pxrInternal_v0_24__pxrReserved__::pxr_half::half", align 2
  %6 = alloca %"class.pxrInternal_v0_24__pxrReserved__::pxr_half::half", align 2
  %7 = alloca %"class.pxrInternal_v0_24__pxrReserved__::pxr_half::half", align 2
  %8 = alloca %"class.pxrInternal_v0_24__pxrReserved__::pxr_half::half", align 2
  store ptr %0, ptr %3, align 8
  store ptr %1, ptr %4, align 8
  %9 = load ptr, ptr %3, align 8
  %10 = call noundef nonnull align 8 dereferenceable(8) ptr @_ZStlsISt11char_traitsIcEERSt13basic_ostreamIcT_ES5_c(ptr noundef nonnull align 8 dereferenceable(8) %9, i8 noundef signext 40)
  %11 = load ptr, ptr %4, align 8
  %12 = call noundef nonnull align 2 dereferenceable(2) ptr @_ZNK32pxrInternal_v0_24__pxrReserved__7GfVec2hixEm(ptr noundef nonnull align 2 dereferenceable(4) %11, i64 noundef 0)
  call void @llvm.memcpy.p0.p0.i64(ptr align 2 %6, ptr align 2 %12, i64 2, i1 false)
  %13 = getelementptr inbounds nuw %"class.pxrInternal_v0_24__pxrReserved__::pxr_half::half", ptr %6, i32 0, i32 0
  %14 = load i16, ptr %13, align 2
  %15 = call i16 @_ZN32pxrInternal_v0_24__pxrReserved__17Gf_OstreamHelperPINS_8pxr_half4halfEEET_S3_(i16 %14)
  %16 = getelementptr inbounds nuw %"class.pxrInternal_v0_24__pxrReserved__::pxr_half::half", ptr %5, i32 0, i32 0
  store i16 %15, ptr %16, align 2
  %17 = getelementptr inbounds nuw %"class.pxrInternal_v0_24__pxrReserved__::pxr_half::half", ptr %5, i32 0, i32 0
  %18 = load i16, ptr %17, align 2
  %19 = call noundef nonnull align 8 dereferenceable(8) ptr @_ZN32pxrInternal_v0_24__pxrReserved__8pxr_halflsERSoNS0_4halfE(ptr noundef nonnull align 8 dereferenceable(8) %10, i16 %18)
  %20 = call noundef nonnull align 8 dereferenceable(8) ptr @_ZStlsISt11char_traitsIcEERSt13basic_ostreamIcT_ES5_PKc(ptr noundef nonnull align 8 dereferenceable(8) %19, ptr noundef @.str.2)
  %21 = load ptr, ptr %4, align 8
  %22 = call noundef nonnull align 2 dereferenceable(2) ptr @_ZNK32pxrInternal_v0_24__pxrReserved__7GfVec2hixEm(ptr noundef nonnull align 2 dereferenceable(4) %21, i64 noundef 1)
  call void @llvm.memcpy.p0.p0.i64(ptr align 2 %8, ptr align 2 %22, i64 2, i1 false)
  %23 = getelementptr inbounds nuw %"class.pxrInternal_v0_24__pxrReserved__::pxr_half::half", ptr %8, i32 0, i32 0
  %24 = load i16, ptr %23, align 2
  %25 = call i16 @_ZN32pxrInternal_v0_24__pxrReserved__17Gf_OstreamHelperPINS_8pxr_half4halfEEET_S3_(i16 %24)
  %26 = getelementptr inbounds nuw %"class.pxrInternal_v0_24__pxrReserved__::pxr_half::half", ptr %7, i32 0, i32 0
  store i16 %25, ptr %26, align 2
  %27 = getelementptr inbounds nuw %"class.pxrInternal_v0_24__pxrReserved__::pxr_half::half", ptr %7, i32 0, i32 0
  %28 = load i16, ptr %27, align 2
  %29 = call noundef nonnull align 8 dereferenceable(8) ptr @_ZN32pxrInternal_v0_24__pxrReserved__8pxr_halflsERSoNS0_4halfE(ptr noundef nonnull align 8 dereferenceable(8) %20, i16 %28)
  %30 = call noundef nonnull align 8 dereferenceable(8) ptr @_ZStlsISt11char_traitsIcEERSt13basic_ostreamIcT_ES5_c(ptr noundef nonnull align 8 dereferenceable(8) %29, i8 noundef signext 41)
  ret ptr %30
}