; Function Attrs: mustprogress uwtable
define noundef nonnull align 8 dereferenceable(8) ptr @_ZN32pxrInternal_v0_24__pxrReserved__lsERSoRKNS_7GfVec2hE(ptr noundef nonnull align 8 dereferenceable(8) %0, ptr nocapture noundef nonnull readonly align 2 dereferenceable(4) %1) local_unnamed_addr #0 {
  %3 = tail call noundef nonnull align 8 dereferenceable(8) ptr @_ZStlsISt11char_traitsIcEERSt13basic_ostreamIcT_ES5_c(ptr noundef nonnull align 8 dereferenceable(8) %0, i8 noundef signext 40)
  %.sroa.02.0.copyload = load i16, ptr %1, align 2
  %4 = tail call noundef nonnull align 8 dereferenceable(8) ptr @_ZN32pxrInternal_v0_24__pxrReserved__8pxr_halflsERSoNS0_4halfE(ptr noundef nonnull align 8 dereferenceable(8) %3, i16 %.sroa.02.0.copyload)
  %5 = tail call noundef nonnull align 8 dereferenceable(8) ptr @_ZStlsISt11char_traitsIcEERSt13basic_ostreamIcT_ES5_PKc(ptr noundef nonnull align 8 dereferenceable(8) %4, ptr noundef nonnull @.str.2)
  %6 = getelementptr inbounds i8, ptr %1, i64 2
  %.sroa.0.0.copyload = load i16, ptr %6, align 2
  %7 = tail call noundef nonnull align 8 dereferenceable(8) ptr @_ZN32pxrInternal_v0_24__pxrReserved__8pxr_halflsERSoNS0_4halfE(ptr noundef nonnull align 8 dereferenceable(8) %5, i16 %.sroa.0.0.copyload)
  %8 = tail call noundef nonnull align 8 dereferenceable(8) ptr @_ZStlsISt11char_traitsIcEERSt13basic_ostreamIcT_ES5_c(ptr noundef nonnull align 8 dereferenceable(8) %7, i8 noundef signext 41)
  ret ptr %8
}